(dp1
S'Touch Pads'
p2
I211
sS'Point & Shoot Film Cameras'
p3
I585
sS'Travel Chargers'
p4
I190
sS'GPS & Navigation'
p5
I337
sS'Motorcycle Accessory Mounts'
p6
I639
sS'SLR Cameras'
p7
I484
sS'Trucking GPS'
p8
I100
sS'RV GPS'
p9
I573
sS'Caller ID Displays'
p10
I385
sS'Cleaning & Repair'
p11
I364
sS'Binocular, Camera & Camcorder Straps'
p12
I108
sS'Thunderbolt Cables'
p13
I461
sS'Boating GPS Chartplotters'
p14
I370
sS'Disc Jewel Cases'
p15
I197
sS'Professional Video Cameras'
p16
I546
sS'3D Glasses'
p17
I144
sS'Lighting'
p18
I339
sS'Satellite Dishes'
p19
I623
sS'Cycling GPS Units'
p20
I452
sS'Cases'
p21
I1
sS'DVD Players'
p22
I80
sS'Motorcycle GPS'
p23
I495
sS'Sports & Handheld GPS'
p24
I552
sS'Film Cameras'
p25
I628
sS'On-Camera Video Lights'
p26
I218
sS'Tweeters'
p27
I424
sS'Stereo Jack Cables'
p28
I64
sS'Backpacks'
p29
I98
sS'In-Mirror Video'
p30
I577
sS'Projector Bags & Cases'
p31
I674
sS'Color Calibration Charts'
p32
I468
sS'Sync & PC Cords'
p33
I223
sS'SATA Cables'
p34
I90
sS'Amps'
p35
I204
sS'HD DVD Players'
p36
I459
sS'In-Dash DVD & Video Receivers'
p37
I237
sS'Tuners'
p38
I378
sS'DVD-RAM Discs'
p39
I308
sS'Car Electronics'
p40
I277
sS'Tape Libraries'
p41
I668
sS'USB Port Cards'
p42
I153
sS'Car & Vehicle Electronics'
p43
I396
sS'Voice Dialers'
p44
I649
sS'Speaker Grills'
p45
I581
sS'Medium & Large-Format Cameras'
p46
I594
sS'Cameras'
p47
I183
sS'Surveillance Camera Cables'
p48
I270
sS'DVD-VCR Combos'
p49
I688
sS'Disc Storage Wallets'
p50
I189
sS'Chargers'
p51
I170
sS'Camera'
p52
I53
sS'Camcorder Cases'
p53
I230
sS'Liquid Cleaners'
p54
I538
sS'Camera Cases'
p55
I10
sS'Disc Duplicators'
p56
I394
sS'Monolights'
p57
I367
sS'Radio Antennas'
p58
I243
sS'GPS Trackers'
p59
I467
sS'Zip Discs'
p60
I644
sS'Color Correction & Compensation Filters'
p61
I510
sS'Screen Protector Foils'
p62
I141
sS'Laptop Replacement Parts'
p63
I561
sS'HDMI Cables'
p64
I3
sS'Computer Equipment Warranties'
p65
I340
sS'Projector Mounts'
p66
I322
sS'Remote Controls'
p67
I78
sS'Battery Packs'
p68
I289
sS'External Battery Packs'
p69
I85
sS'Satellite Television'
p70
I660
sS'Mice'
p71
I6
sS'Marine Speakers'
p72
I522
sS'Tweeter Diaphragms'
p73
I658
sS'VCR Rewinders'
p74
I608
sS'FM Transmitters'
p75
I63
sS'Optical Drives'
p76
I407
sS'Cord Reels'
p77
I325
sS'Internet Radios'
p78
I186
sS'CD Drives'
p79
I489
sS'Memory Cards'
p80
I473
sS'Batteries & Chargers'
p81
I501
sS'Data Cables'
p82
I258
sS'Distribution'
p83
I391
sS'Graphics Cards'
p84
I40
sS'Camcorder'
p85
I267
sS'Camera Cranes'
p86
I547
sS'Cables & Interconnects'
p87
I71
sS'PDAs, Handhelds & Accessories'
p88
I514
sS'Cloths'
p89
I252
sS'Infrared Filters'
p90
I498
sS'Car Mounts'
p91
I346
sS'Camera & Photo'
p92
I103
sS'Power Packs'
p93
I562
sS'Monitors'
p94
I29
sS'DVD+R Discs'
p95
I203
sS'Soft Boxes'
p96
I226
sS'Black & White Contrast Filters'
p97
I666
sS'Firewire Adapters'
p98
I508
sS'Lens Accessories'
p99
I271
sS'Fuses'
p100
I329
sS'Dome Cameras'
p101
I247
sS'DVD Cases'
p102
I212
sS'Car Headphones'
p103
I441
sS'Compact System Camera Bundles'
p104
I612
sS'CD Recorders'
p105
I641
sS'Vehicle Electronics Accessories'
p106
I95
sS'Cleaning Equipment'
p107
I574
sS'Chargers & Adapters'
p108
I9
sS'Digital SLR Camera Bundles'
p109
I205
sS'Speaker Cables'
p110
I127
sS'Viewfinders'
p111
I285
sS'CD-RW Discs'
p112
I540
sS'USB Network Adapters'
p113
I19
sS'Mobile Hotspots'
p114
I656
sS'Shower Radios'
p115
I449
sS'Tripod Heads'
p116
I157
sS'Speaker Mounts'
p117
I245
sS'Noise Filters'
p118
I647
sS'Speaker Surround Kits'
p119
I661
sS'Bags & Cases'
p120
I122
sS'Case Hardware & Latches'
p121
I536
sS'Audio Car Mounts'
p122
I240
sS'Modems'
p123
I51
sS'Wall Plates & Connectors'
p124
I199
sS'Video'
p125
I456
sS'Filter Sets'
p126
I137
sS'Repeaters'
p127
I89
sS'Weather Radios'
p128
I176
sS'Video Surveillance'
p129
I592
sS'Grill Cloth'
p130
I597
sS'Safelights'
p131
I483
sS'Neutral Density Filters'
p132
I246
sS'SCSI Port Cards'
p133
I345
sS'Barking-Dog Alarms'
p134
I696
sS'Disc Repair Kits'
p135
I355
sS'VHS-C'
p136
I532
sS'Battery Grips'
p137
I124
sS'Simulated Cameras'
p138
I304
sS'Motorcycle Bluetooth Headsets'
p139
I578
sS'Amplifier Installation'
p140
I694
sS'VTR Decks'
p141
I672
sS'default_cat'
p142
I0
sS'Routers'
p143
I11
sS'Head Cleaners'
p144
I465
sS'Subwoofer Cables'
p145
I244
sS'PS/2 Cables'
p146
I541
sS'Telescopes'
p147
I587
sS'Remote Home Monitoring Systems'
p148
I233
sS'Grills'
p149
I400
sS'Soundbar Speakers'
p150
I116
sS'TV Antennas'
p151
I47
sS'Tripod Mount Rings'
p152
I477
sS'VCRs'
p153
I507
sS'Camera Sliders'
p154
I419
sS'Background Support Equipment'
p155
I315
sS'Cables & Cords'
p156
I388
sS'Continuous Output Lighting'
p157
I689
sS'Lightning Cables'
p158
I107
sS'Binding Machine Supplies'
p159
I589
sS'Refractors'
p160
I475
sS'TV Turntables'
p161
I580
sS'Cassette Player Adapters'
p162
I213
sS'DVD Players & Recorders'
p163
I112
sS'Bluetooth Speakers'
p164
I172
sS'External Hard Drives'
p165
I5
sS'Adapters & Converters'
p166
I147
sS'CD-R Discs'
p167
I161
sS'Tablets'
p168
I25
sS'Mounting Kits'
p169
I569
sS'Stylus Pens'
p170
I311
sS'Digital Picture Frame Screen Protector Foils'
p171
I685
sS'eBook Readers & Accessories'
p172
I544
sS'Fixed-mount CB Radios'
p173
I457
sS'Speaker Repair Accessories'
p174
I697
sS'Film'
p175
I324
sS'Diopters'
p176
I464
sS'Single-Use Cameras'
p177
I474
sS'Slaves'
p178
I524
sS'Mounting Accessories'
p179
I690
sS'Touch Screen Tablet Accessories'
p180
I73
sS'Portable Audio & Video'
p181
I227
sS'Digital-to-Analog Converters'
p182
I485
sS'Video Glasses'
p183
I376
sS'Lens Cleaners'
p184
I202
sS'Photo Adapters'
p185
I471
sS'Multiroom Digital Music Systems'
p186
I358
sS'Multimedia Cards'
p187
I609
sS'Serial Adapters'
p188
I408
sS'Stabilizers'
p189
I242
sS'Lens Cases'
p190
I354
sS'Laptops'
p191
I27
sS'Chemicals'
p192
I571
sS'Network Transceivers'
p193
I496
sS'Basic Cases'
p194
I101
sS'Memory Card Adapters'
p195
I185
sS'Powerline Network Adapters'
p196
I88
sS'Motorcycle Electronics'
p197
I702
sS'Aviation Handheld Radios'
p198
I636
sS'Floor Cord Covers'
p199
I618
sS'Headsets & Microphones'
p200
I93
sS'Blu-ray Players & Recorders'
p201
I229
sS'Computer Speakers'
p202
I22
sS'Dual-channel Amplifiers'
p203
I450
sS'VGA Cables'
p204
I169
sS'Plasma TVs'
p205
I115
sS'Slide Projectors'
p206
I682
sS'Desktops'
p207
I92
sS'Cassette Players & Recorders'
p208
I389
sS'Code Readers & Scan Tools'
p209
I657
sS'HDD Cooling Fans'
p210
I703
sS'Camera Batteries'
p211
I21
sS'Hard Drive Bags'
p212
I120
sS'Accessories'
p213
I97
sS'Skins'
p214
I426
sS'Blank Video Media'
p215
I526
sS'Archival Storage Binders'
p216
I675
sS'Subwoofer Boxes and Enclosures'
p217
I361
sS'CD Racks'
p218
I427
sS'Aircraft Accessories'
p219
I602
sS'RCA Cables'
p220
I110
sS'Bookshelf Speakers'
p221
I163
sS'Graduated Color Filters'
p222
I572
sS'Shortwave Radios'
p223
I134
sS'SIM Cards & Tools'
p224
I615
sS'Equalizers'
p225
I492
sS'Surveillance DVR Kits'
p226
I327
sS'Keyboard Skins'
p227
I118
sS'External Sound Cards'
p228
I406
sS'Barn Doors'
p229
I619
sS'Print Servers'
p230
I261
sS'MiniSD Cards'
p231
I436
sS'Desktop Barebones'
p232
I313
sS'Network Cards'
p233
I179
sS'Stereo Components'
p234
I398
sS'Video Projectors'
p235
I128
sS'Motion Detectors'
p236
I282
sS'Lamps'
p237
I181
sS'Computers & Accessories'
p238
I33
sS'Film Processing Equipment'
p239
I518
sS'Visor Accessories'
p240
I667
sS'Selector Switch Boxes'
p241
I109
sS'Compressed Air'
p242
I413
sS'Network Antennas'
p243
I263
sS'Golf Course GPS Units'
p244
I342
sS'APS Cameras'
p245
I678
sS'Hi-8'
p246
I665
sS'xD-Picture Cards'
p247
I379
sS'Macro & Ringlight Flashes'
p248
I306
sS'Component Preamplifiers'
p249
I445
sS'Cables & Accessories'
p250
I192
sS'USB-to-VGA Adapters'
p251
I365
sS'Network Adapters'
p252
I231
sS'Overhead Video'
p253
I390
sS'Accessories & Supplies'
p254
I102
sS'Adapters'
p255
I99
sS'Numeric Keypads'
p256
I249
sS'Subwoofers'
p257
I113
sS'Component Receivers'
p258
I54
sS'Home Audio'
p259
I570
sS'Servers'
p260
I511
sS'Microscopes'
p261
I479
sS'Bluetooth Headsets'
p262
I77
sS'Batteries'
p263
I18
sS'Calculator Accessories'
p264
I553
sS'Vehicle Mounts'
p265
I43
sS'F-Pin-Coaxial Tip'
p266
I232
sS'Bundles'
p267
I148
sS'Car CD Visors'
p268
I582
sS'Hard Drive Cases'
p269
I566
sS'Keyboards & Styluses'
p270
I392
sS'Housings'
p271
I300
sS'Serial Port Cards'
p272
I438
sS'Shoe Mount Flashes'
p273
I76
sS'Security Sensors'
p274
I331
sS'Cable Security Devices'
p275
I347
sS'Lighting & Studio'
p276
I567
sS'Component Speakers'
p277
I662
sS'CD Players & Recorders'
p278
I630
sS'Copying Equipment'
p279
I695
sS'Headsets & Intercoms'
p280
I539
sS'Sleeves'
p281
I133
sS'Compound Monocular Microscopes'
p282
I480
sS'Subwoofer Amplifiers'
p283
I523
sS'Marine Amplifiers'
p284
I691
sS'Replacement Screens'
p285
I287
sS'Car Stereo Receivers'
p286
I119
sS'Cable Sleeves'
p287
I435
sS'Personal Radios'
p288
I291
sS'Binoculars & Scopes'
p289
I533
sS'Car Speakerphones'
p290
I412
sS'Camcorder Lenses'
p291
I411
sS'Wireless Access Points'
p292
I60
sS'Charger Kits'
p293
I343
sS'Isolation Transformers'
p294
I558
sS'Microphones'
p295
I210
sS'International Chargers'
p296
I607
sS'SD & SDHC Cards'
p297
I16
sS'MP3 Players'
p298
I15
sS'Case Fans'
p299
I48
sS'USB Fans'
p300
I278
sS'Center-Channel Speakers'
p301
I217
sS'Handset Cords'
p302
I350
sS'Underwater Photography'
p303
I593
sS'Computer Vacuums'
p304
I626
sS'Shutter Release Cords'
p305
I156
sS'Photo Enlarging Paper'
p306
I663
sS'Fans & Cooling'
p307
I500
sS'Coaxial Speakers'
p308
I111
sS'FireWire Port Cards'
p309
I380
sS'Home Audio Crossovers & Parts'
p310
I621
sS'Electronics Warranties'
p311
I131
sS'Receivers & Amplifiers'
p312
I535
sS'Video Transmission Systems'
p313
I645
sS'Surveillance Cameras'
p314
I158
sS'Smart Watches & Accessories'
p315
I527
sS'Digital SLR Cameras'
p316
I52
sS'Compressed Air Dusters'
p317
I362
sS'Bullet Cameras'
p318
I220
sS'Stereo Microscopes'
p319
I610
sS'External Solid State Drives'
p320
I493
sS'Monoculars'
p321
I348
sS'DVD-RW Discs'
p322
I421
sS'Filter Cases'
p323
I494
sS'Fishfinders'
p324
I481
sS'Car Chargers'
p325
I106
sS'Antennas'
p326
I86
sS'Extension Tubes'
p327
I257
sS'PC Headsets'
p328
I55
sS'Instant Cameras'
p329
I363
sS'Cases & Sleeves'
p330
I123
sS'Vehicle GPS'
p331
I67
sS'Follow-Focus Levers'
p332
I595
sS'Cassette Storage'
p333
I698
sS'Graphics Card Fans'
p334
I462
sS'I/O Port Cards'
p335
I470
sS'Car Audio'
p336
I415
sS'Video Converters'
p337
I125
sS'Laptop & Netbook Computer Accessories'
p338
I150
sS'Surveillance Camera Lenses'
p339
I624
sS'Professional Photo Albums'
p340
I472
sS'Digital Camera Accessories'
p341
I381
sS'Security Monitors & Displays'
p342
I409
sS'Internal Solid State Drives'
p343
I35
sS'Power & Ground Cable'
p344
I341
sS'Line Conditioners'
p345
I446
sS'Telephone Accessories'
p346
I429
sS'Reading Lights'
p347
I265
sS'SmartMedia Cards'
p348
I512
sS'Presentation Supplies'
p349
I692
sS'Two-Way Radios'
p350
I145
sS'Umbrellas'
p351
I198
sS'Power Supplies'
p352
I66
sS'PDA & Handheld Accessories'
p353
I505
sS'Stands'
p354
I94
sS'Digital Voice Recorders'
p355
I142
sS'Speaker Systems'
p356
I14
sS'Keyboard & Mouse Combos'
p357
I46
sS'Systems'
p358
I699
sS'Portable Photo Printers'
p359
I397
sS'Blank Media'
p360
I515
sS'Minidisc Players'
p361
I542
sS'Video Multiplexers & Quads'
p362
I655
sS'Modem Cables'
p363
I307
sS'Installation Services'
p364
I529
sS'Cable Straps'
p365
I422
sS'Internal Batteries'
p366
I486
sS'Skins & Decals'
p367
I114
sS'Television & Video'
p368
I251
sS'Screen Filters'
p369
I299
sS'Loupes'
p370
I534
sS'Compact Stereos'
p371
I256
sS'Camera Supports & Stabilizers'
p372
I650
sS'Step-Up Rings'
p373
I382
sS'Lens Caps'
p374
I96
sS'MP3 Players & Accessories'
p375
I528
sS'Sandbags'
p376
I525
sS'Data Cartridges'
p377
I478
sS'Projector Cases'
p378
I625
sS'Guiders & Wedges'
p379
I700
sS'Security & Surveillance'
p380
I393
sS'BD-RE Discs'
p381
I443
sS'BD-R Discs'
p382
I290
sS'Radios'
p383
I224
sS'Mono Amplifiers'
p384
I326
sS'DVD+RW Discs'
p385
I268
sS'Computer Cable Adapters'
p386
I58
sS'Handheld GPS Units'
p387
I61
sS'Aircraft Avionics'
p388
I679
sS'Multichannel Amplifiers'
p389
I293
sS'Video Projector Accessories'
p390
I506
sS'Internal CD Drives'
p391
I583
sS'Analog-to-Digital (DTV) Converters'
p392
I255
sS'Adapter Rings'
p393
I309
sS'Tripods'
p394
I359
sS'Tripods & Monopods'
p395
I632
sS'Serial Cables'
p396
I275
sS'Diffusers'
p397
I126
sS'Digital Pens'
p398
I167
sS'Slide, Negative & Print Pages'
p399
I642
sS'Wireless Jack Systems'
p400
I458
sS'Receivers'
p401
I332
sS'Firewire Cables'
p402
I259
sS'Battery Charger Cases'
p403
I491
sS'Fiber Optic Cables'
p404
I91
sS'Monitor Accessories'
p405
I236
sS'Holsters & Clips'
p406
I504
sS'Shoe Mounts'
p407
I228
sS'Skylight & UV Filters'
p408
I87
sS'Film SLR Lenses'
p409
I420
sS'Accessory Kits'
p410
I79
sS'Horns & Sirens'
p411
I516
sS'Floppy Diskettes'
p412
I590
sS'Cable Raceways'
p413
I613
sS'Clock Radios'
p414
I371
sS'Home Security Systems'
p415
I201
sS'Folio Cases'
p416
I222
sS'Vehicle Backup Cameras'
p417
I173
sS'Game Hardware'
p418
I627
sS'Battery Chargers'
p419
I239
sS'Marine Two-Way Radios'
p420
I520
sS'Tripod Legs'
p421
I294
sS'Covers'
p422
I50
sS'Speaker Installation'
p423
I556
sS'Security Locks'
p424
I401
sS'Computer Cases'
p425
I56
sS'IR Illuminators'
p426
I648
sS'Camcorder Accessories'
p427
I439
sS'Posing Props'
p428
I640
sS'Wired Headsets'
p429
I314
sS'Dust Caps'
p430
I606
sS'Dew Caps'
p431
I659
sS'Shoulder Bags'
p432
I482
sS'Parallel Cables'
p433
I476
sS'Internal Optical Drives'
p434
I596
sS'Accessory Bundles'
p435
I414
sS'Digital Camera Lenses'
p436
I20
sS'Tripod & Monopod Cases'
p437
I460
sS'Surveillance Systems'
p438
I425
sS'Heatsinks'
p439
I187
sS'Digital Coaxial Cables'
p440
I279
sS'Running GPS Units'
p441
I209
sS'Memory Card Readers'
p442
I41
sS'Binoculars'
p443
I146
sS'Boxes'
p444
I635
sS'Power Inverters'
p445
I616
sS'Input Devices'
p446
I509
sS'Light Meters'
p447
I303
sS'Bluetooth Car Kits'
p448
I318
sS'Enlargers'
p449
I693
sS'RF Modulators'
p450
I384
sS'Opera Glasses'
p451
I669
sS'Webcams'
p452
I68
sS'Turntables'
p453
I238
sS'Projection Screens'
p454
I234
sS'Power Strips'
p455
I235
sS'Internal Blu-ray Drives'
p456
I260
sS'Ethernet Cables'
p457
I44
sS'Blu-ray Drives'
p458
I262
sS'Floppy & Tape Drives'
p459
I295
sS'Flashes'
p460
I646
sS'Data Storage'
p461
I517
sS'Tape Decks'
p462
I521
sS'Cable Ties'
p463
I208
sS'Water Cooling Systems'
p464
I405
sS'Hidden Cameras'
p465
I200
sS'Headsets'
p466
I152
sS'Access-Control Keypads'
p467
I548
sS'Car Cradles & Mounts'
p468
I565
sS'Contract Cell Phones'
p469
I611
sS'Digital Cameras'
p470
I296
sS'Changers'
p471
I704
sS'Mini-SAS Cables'
p472
I617
sS'Biometrics'
p473
I513
sS'Briefcases'
p474
I312
sS'Home Theater Systems'
p475
I184
sS'Labeling Tapes'
p476
I272
sS'CB Radios & Scanners'
p477
I302
sS'Tripod & Monopod Accessories'
p478
I284
sS'Booms & Stands'
p479
I216
sS'Charging Stations'
p480
I559
sS'Remote-Control Extenders'
p481
I166
sS'Audio & Video Accessories'
p482
I117
sS'Parallel Adapters'
p483
I356
sS'Motherboards'
p484
I62
sS'Wall Chargers'
p485
I253
sS'Tabletop & Travel Tripods'
p486
I369
sS'USB-to-USB Adapters'
p487
I352
sS'Flash Tubes'
p488
I673
sS'Bluetooth Network Adapters'
p489
I180
sS'Hard Drive Enclosures'
p490
I32
sS'Rear Projection TV Replacement Lamps'
p491
I377
sS'Castors'
p492
I599
sS'Satellite TV Equipment'
p493
I269
sS'Professional Video Accessories'
p494
I301
sS'Chargers & Cables'
p495
I264
sS'DVD Recorders'
p496
I195
sS'Light Meters & Accessories'
p497
I451
sS'Camera Lenses'
p498
I84
sS'Laptop Network Adapters'
p499
I178
sS'Darkroom Supplies'
p500
I568
sS'Solar Chargers'
p501
I601
sS'Barlow Lenses'
p502
I551
sS'Streaming Media Players'
p503
I17
sS'Handheld CB Radios'
p504
I453
sS'Flash Accessories'
p505
I333
sS'Memory Sticks'
p506
I214
sS'Mounts'
p507
I466
sS'Grey Cards'
p508
I469
sS'Service & Replacement Plans'
p509
I701
sS'In-Dash Navigation'
p510
I349
sS'Point & Shoot Digital Camera Bundles'
p511
I344
sS'Camera Brackets'
p512
I283
sS'Luggage & Travel Gear'
p513
I603
sS'RAID Controllers'
p514
I423
sS'Power-Cable Terminals'
p515
I432
sS'PC Microphones'
p516
I160
sS'Point & Shoot Digital Cameras'
p517
I4
sS'Digital Picture Frames'
p518
I139
sS'Earpads'
p519
I105
sS'Car Kits'
p520
I676
sS'Portfolios'
p521
I530
sS'Cables'
p522
I598
sS'AC Adapters'
p523
I82
sS'Screen Protectors'
p524
I7
sS'Handheld Digital Photo Viewers'
p525
I554
sS'Component Video'
p526
I280
sS'Satellite Finders'
p527
I545
sS'TV-DVD Combinations'
p528
I360
sS'USB Lamps'
p529
I336
sS'Traffic Message Channel (TMC) Receiver Modules'
p530
I433
sS'Motor Drives'
p531
I651
sS'Carpet & Vinyl'
p532
I671
sS'Graphics Tablets'
p533
I162
sS'DVD-R Discs'
p534
I159
sS'Lens Supports'
p535
I537
sS'Parallel Port Cards'
p536
I490
sS'On-Dash Video'
p537
I273
sS'Audio Cables'
p538
I276
sS'Telescope Accessories'
p539
I440
sS'Feet & Spikes'
p540
I637
sS'Aviation Electronics'
p541
I555
sS'Reflectors'
p542
I182
sS'Catadioptric'
p543
I560
sS'Surveillance Video Recorders'
p544
I310
sS'Headphones'
p545
I2
sS'Backgrounds'
p546
I171
sS'Capacitors'
p547
I455
sS'Finder Scopes'
p548
I531
sS'Digital Media Player Accessories'
p549
I584
sS'MP3 Player Accessories'
p550
I70
sS'Enclosed Subwoofer Systems'
p551
I686
sS'Compact System Cameras'
p552
I168
sS'Chamois'
p553
I448
sS'Digital Handwriting Pads'
p554
I620
sS'Signal Boosters'
p555
I319
sS'DVI Cables'
p556
I143
sS'DVD Drives'
p557
I130
sS'TV Tuners'
p558
I454
sS'Marine Antennas'
p559
I600
sS'PDAs & Handhelds'
p560
I175
sS'PDUs'
p561
I351
sS'Vehicle Tracking and Monitoring Modules'
p562
I633
sS'Shooting Tents'
p563
I437
sS'Switches'
p564
I59
sS'Interconnect Cables'
p565
I387
sS'Complete Tripods'
p566
I45
sS'External Zip Drives'
p567
I557
sS'Line Cords'
p568
I588
sS'Headrest Video'
p569
I428
sS'Telescope Cases'
p570
I687
sS'Car Safety & Security'
p571
I335
sS'Aviation GPS'
p572
I579
sS'Extension Cords'
p573
I174
sS'Graphics Tablet Styluses'
p574
I74
sS'Cord Management'
p575
I254
sS'Satellite Dish Mounts'
p576
I670
sS'Power Cables'
p577
I155
sS'Effects Filters'
p578
I519
sS'MiniDV'
p579
I372
sS'TV Ceiling & Wall Mounts'
p580
I28
sS'Radio Scanners'
p581
I418
sS'Compact System Camera Lenses'
p582
I395
sS'Amplifiers'
p583
I447
sS'Portable & Novelty TVs'
p584
I316
sS'CD Players'
p585
I292
sS'Cooling Pads'
p586
I65
sS'Camera Shoulder Supports'
p587
I442
sS'Power Converters'
p588
I221
sS'Radar Detectors'
p589
I165
sS'Service Plans'
p590
I357
sS'Armbands'
p591
I188
sS'Headphone Accessories'
p592
I366
sS'External Components'
p593
I317
sS'Monopods'
p594
I193
sS'Component Subwoofers'
p595
I225
sS'Surveillance Housing & Mounting Brackets'
p596
I430
sS'Office Electronics Accessories'
p597
I564
sS'TV Screen Protectors'
p598
I575
sS'Cooling Fans'
p599
I503
sS'Composite Video'
p600
I266
sS'Cleaning Kits'
p601
I132
sS'DVI-HDMI Adapters'
p602
I140
sS'Internal Modems'
p603
I368
sS'Replacement Parts'
p604
I622
sS'Diagonals'
p605
I677
sS'AV Receivers & Amplifiers'
p606
I305
sS'Hubs'
p607
I30
sS'Cables & Cradles'
p608
I502
sS'Connectors & Adapters'
p609
I31
sS'Computer Screws'
p610
I463
sS'Gender Changers'
p611
I321
sS'Underwater Lenses'
p612
I643
sS'Splitters'
p613
I330
sS'Batteries, Chargers & Accessories'
p614
I373
sS'Messenger Bags'
p615
I191
sS'Power Adapters'
p616
I154
sS'Docking Stations'
p617
I69
sS'Distribution Panels'
p618
I549
sS'Uninterrupted Power Supply (UPS)'
p619
I81
sS'Satellite Speakers'
p620
I298
sS'Speakers'
p621
I206
sS'Boating GPS Accessories'
p622
I550
sS'Camcorders'
p623
I38
sS'Crossover Parts'
p624
I605
sS'Monopod Heads'
p625
I444
sS'Surface-mounted Speakers'
p626
I664
sS'Disc Cleaners'
p627
I416
sS'Internal TV Tuner & Capture Cards'
p628
I194
sS'Binocular Accessories'
p629
I404
sS'Micro SD Cards'
p630
I23
sS'Sports & Action Video Cameras'
p631
I286
sS'Televisions'
p632
I334
sS'Lens Hoods'
p633
I75
sS'Device Servers'
p634
I652
sS'Portable DVD Players'
p635
I374
sS'Internal DVD Drives'
p636
I177
sS'Port Tubes'
p637
I653
sS'Brushes'
p638
I386
sS'LED TVs'
p639
I34
sS'USB Flash Drives'
p640
I13
sS'Bag & Case Accessories'
p641
I135
sS'Repair Kits'
p642
I288
sS'Component Amplifiers'
p643
I149
sS'Floorstanding Speakers'
p644
I281
sS'Trays & Bags'
p645
I680
sS'Keyboards'
p646
I12
sS'Blu-ray Players'
p647
I39
sS'Surround Processors'
p648
I629
sS'Car Dash Mounting Kits'
p649
I681
sS'CB & Two-Way Radios'
p650
I402
sS'TV Remote Controls'
p651
I36
sS'Speaker Parts & Components'
p652
I563
sS'eBook Readers'
p653
I138
sS'Audio Adapters'
p654
I586
sS'Video Monitors'
p655
I604
sS'Shooting Tables'
p656
I638
sS'S-Video Cables'
p657
I383
sS'Cell Phone Docks'
p658
I487
sS'Camera Cine Dollies'
p659
I576
sS'Network Attached Storage'
p660
I83
sS'Sleeves & Slipcases'
p661
I49
sS'CPU Cooling Fans'
p662
I129
sS'KVM Switches'
p663
I151
sS'Portable CD Players'
p664
I320
sS'USB Cables'
p665
I8
sS'Trackballs'
p666
I136
sS'Computer & Monitor Mounts'
p667
I375
sS'Photo Studio'
p668
I328
sS'VHS'
p669
I488
sS'Internal Hard Drives'
p670
I26
sS'Hi-Fi & HT Cabinets'
p671
I543
sS'Memory'
p672
I24
sS'Boomboxes'
p673
I241
sS'Unlocked Cell Phones'
p674
I634
sS'Satellite Radio'
p675
I215
sS'Computer Components'
p676
I57
sS'Microcassette Recorders'
p677
I499
sS'LCD TVs'
p678
I42
sS'Storage & Presentation Materials'
p679
I353
sS'External TV Tuners'
p680
I323
sS'Video Cables'
p681
I403
sS'Filters & Accessories'
p682
I399
sS'Polarizing Filters'
p683
I196
sS'Laptop Barebones'
p684
I654
sS'Auxiliary Input Adapters'
p685
I248
sS'Internal Sound Cards'
p686
I164
sS'Camcorder Bundles'
p687
I497
sS'Rain Covers'
p688
I614
sS'Camcorder Batteries'
p689
I121
sS'Surge Protectors'
p690
I37
sS'Specialty Film Cameras'
p691
I683
sS'GPS System Accessories'
p692
I297
sS'Minidiscs'
p693
I631
sS'USB Microscopes'
p694
I434
sS'Media Storage & Organization'
p695
I338
sS'Eyepieces'
p696
I431
sS'Mounting Hardware'
p697
I250
sS'CompactFlash Cards'
p698
I104
sS'Remote Triggers'
p699
I417
sS'CPU Processors'
p700
I72
sS'In-Visor Video'
p701
I684
sS'Filters'
p702
I410
sS'Matte Boxes'
p703
I591
sS'Camera Mounts & Clamps'
p704
I207
sS'Digital Media Receivers'
p705
I274
sS'Networking Products'
p706
I219
s.